; Function Attrs: nounwind uwtable
define range(i32 0, 2) i32 @SSL_use_PrivateKey(ptr noundef %0, ptr noundef %1) local_unnamed_addr #0 {
  %3 = icmp eq ptr %0, null
  br i1 %3, label %.thread, label %4

4:                                                ; preds = %2
  %5 = load i32, ptr %0, align 8, !tbaa !3
  %6 = icmp eq i32 %5, 0
  br i1 %6, label %.thread15, label %7

7:                                                ; preds = %4
  %8 = and i32 %5, 128
  %.not = icmp eq i32 %8, 0
  br i1 %.not, label %.thread, label %9

9:                                                ; preds = %7
  %10 = tail call ptr @ossl_quic_obj_get0_handshake_layer(ptr noundef nonnull %0) #6
  %11 = icmp eq ptr %10, null
  br i1 %11, label %.thread, label %.thread15

.thread15:                                        ; preds = %4, %9
  %12 = phi ptr [ %10, %9 ], [ %0, %4 ]
  %13 = icmp eq ptr %1, null
  br i1 %13, label %14, label %15

14:                                               ; preds = %.thread15
  tail call void @ERR_new() #6
  tail call void @ERR_set_debug(ptr noundef nonnull @.str, i32 noundef 162, ptr noundef nonnull @__func__.SSL_use_PrivateKey) #6
  tail call void (i32, i32, ptr, ...) @ERR_set_error(i32 noundef 20, i32 noundef 786690, ptr noundef null) #6
  br label %.thread

15:                                               ; preds = %.thread15
  %16 = getelementptr inbounds nuw i8, ptr %12, i64 2176
  %17 = load ptr, ptr %16, align 8, !tbaa !15
  %18 = getelementptr inbounds nuw i8, ptr %12, i64 8
  %19 = load ptr, ptr %18, align 8, !tbaa !70
  %20 = tail call fastcc i32 @ssl_set_pkey(ptr noundef %17, ptr noundef %1, ptr noundef %19)
  br label %.thread

.thread:                                          ; preds = %7, %2, %9, %15, %14
  %.0 = phi i32 [ 0, %14 ], [ %20, %15 ], [ 0, %9 ], [ 0, %2 ], [ 0, %7 ]
  ret i32 %.0
}